target datalayout = "e-m:e-p270:32:32-p271:32:32-p272:64:64-i64:64-i128:128-f80:128-n8:16:32:64-S128"
target triple = "x86_64-pc-linux-gnu"

%struct._GtkTreeIter = type { i32, ptr, ptr, ptr }

@cluster_flags = external global i32, align 4
@.str.29 = private unnamed_addr constant [1 x i8] zeroinitializer, align 1
@.str.30 = private unnamed_addr constant [7 x i8] c"column\00", align 1
@sview_mutex = external global ptr, align 8

; Function Attrs: nounwind uwtable
define dso_local void @admin_edit_node(ptr noundef %0, ptr noundef %1, ptr noundef %2, ptr noundef %3) #0 {
  %5 = alloca ptr, align 8
  %6 = alloca ptr, align 8
  %7 = alloca ptr, align 8
  %8 = alloca ptr, align 8
  %9 = alloca ptr, align 8
  %10 = alloca ptr, align 8
  %11 = alloca %struct._GtkTreeIter, align 8
  %12 = alloca ptr, align 8
  %13 = alloca i32, align 4
  store ptr %0, ptr %5, align 8
  store ptr %1, ptr %6, align 8
  store ptr %2, ptr %7, align 8
  store ptr %3, ptr %8, align 8
  call void @llvm.lifetime.start.p0(i64 8, ptr %9) #7
  store ptr null, ptr %9, align 8
  call void @llvm.lifetime.start.p0(i64 8, ptr %10) #7
  store ptr null, ptr %10, align 8
  call void @llvm.lifetime.start.p0(i64 32, ptr %11) #7
  call void @llvm.lifetime.start.p0(i64 8, ptr %12) #7
  store ptr null, ptr %12, align 8
  call void @llvm.lifetime.start.p0(i64 4, ptr %13) #7
  %14 = load ptr, ptr %7, align 8
  %15 = icmp ne ptr %14, null
  br i1 %15, label %16, label %20

16:                                               ; preds = %4
  %17 = load ptr, ptr %7, align 8
  %18 = call i32 @xstrcmp(ptr noundef %17, ptr noundef @.str.29)
  %19 = icmp ne i32 %18, 0
  br i1 %19, label %21, label %20

20:                                               ; preds = %16, %4
  br label %56

21:                                               ; preds = %16
  %22 = load i32, ptr @cluster_flags, align 4
  %23 = zext i32 %22 to i64
  %24 = and i64 %23, 2048
  %25 = icmp ne i64 %24, 0
  br i1 %25, label %26, label %28

26:                                               ; preds = %21
  %27 = load ptr, ptr %7, align 8
  call void @display_fed_disabled_popup(ptr noundef %27)
  br label %56

28:                                               ; preds = %21
  %29 = load ptr, ptr %8, align 8
  %30 = call i64 @gtk_tree_store_get_type() #8
  %31 = call ptr @g_type_check_instance_cast(ptr noundef %29, i64 noundef %30)
  store ptr %31, ptr %9, align 8
  %32 = load ptr, ptr %6, align 8
  %33 = call ptr @gtk_tree_path_new_from_string(ptr noundef %32)
  store ptr %33, ptr %10, align 8
  %34 = load ptr, ptr %9, align 8
  %35 = call i64 @gtk_tree_model_get_type() #8
  %36 = call ptr @g_type_check_instance_cast(ptr noundef %34, i64 noundef %35)
  %37 = load ptr, ptr %10, align 8
  %38 = call i32 @gtk_tree_model_get_iter(ptr noundef %36, ptr noundef %11, ptr noundef %37)
  %39 = load ptr, ptr %5, align 8
  %40 = call ptr @g_type_check_instance_cast(ptr noundef %39, i64 noundef 80)
  %41 = call ptr @g_object_get_data(ptr noundef %40, ptr noundef @.str.30)
  %42 = ptrtoint ptr %41 to i64
  %43 = trunc i64 %42 to i32
  store i32 %43, ptr %13, align 4
  %44 = load i32, ptr %13, align 4
  switch i32 %44, label %53 [
    i32 32, label %45
  ]

45:                                               ; preds = %28
  %46 = load ptr, ptr %9, align 8
  %47 = call i64 @gtk_tree_model_get_type() #8
  %48 = call ptr @g_type_check_instance_cast(ptr noundef %46, i64 noundef %47)
  call void (ptr, ptr, ...) @gtk_tree_model_get(ptr noundef %48, ptr noundef %11, i32 noundef 21, ptr noundef %12, i32 noundef -1)
  %49 = load ptr, ptr %12, align 8
  %50 = load ptr, ptr %7, align 8
  %51 = call i32 @update_state_node(ptr noundef null, ptr noundef %49, ptr noundef %50)
  %52 = load ptr, ptr %12, align 8
  call void @g_free(ptr noundef %52)
  br label %53

53:                                               ; preds = %28, %45
  br label %54

54:                                               ; preds = %53
  %55 = load ptr, ptr %10, align 8
  call void @gtk_tree_path_free(ptr noundef %55)
  br label %56

56:                                               ; preds = %54, %26, %20
  %57 = load ptr, ptr @sview_mutex, align 8
  call void @g_mutex_unlock(ptr noundef %57)
  call void @llvm.lifetime.end.p0(i64 4, ptr %13) #7
  call void @llvm.lifetime.end.p0(i64 8, ptr %12) #7
  call void @llvm.lifetime.end.p0(i64 32, ptr %11) #7
  call void @llvm.lifetime.end.p0(i64 8, ptr %10) #7
  call void @llvm.lifetime.end.p0(i64 8, ptr %9) #7
  ret void
}