; Function Attrs: nounwind uwtable
define dso_local void @admin_edit_node(ptr noundef %0, ptr noundef %1, ptr noundef %2, ptr noundef %3) #0 {
  %5 = alloca %struct._GtkTreeIter, align 8
  %6 = alloca ptr, align 8
  call void @llvm.lifetime.start.p0(i64 32, ptr nonnull %5) #11
  call void @llvm.lifetime.start.p0(i64 8, ptr nonnull %6) #11
  store ptr null, ptr %6, align 8
  %.not = icmp eq ptr %2, null
  br i1 %.not, label %30, label %7

7:                                                ; preds = %4
  %8 = tail call i32 @xstrcmp(ptr noundef nonnull %2, ptr noundef nonnull @.str.29) #11
  %.not11 = icmp eq i32 %8, 0
  br i1 %.not11, label %30, label %9

9:                                                ; preds = %7
  %10 = load i32, ptr @cluster_flags, align 4
  %11 = and i32 %10, 2048
  %.not12 = icmp eq i32 %11, 0
  br i1 %.not12, label %13, label %12

12:                                               ; preds = %9
  tail call void @display_fed_disabled_popup(ptr noundef nonnull %2) #11
  br label %30

13:                                               ; preds = %9
  %14 = tail call i64 @gtk_tree_store_get_type() #12
  %15 = tail call ptr @g_type_check_instance_cast(ptr noundef %3, i64 noundef %14) #11
  %16 = tail call ptr @gtk_tree_path_new_from_string(ptr noundef %1) #11
  %17 = tail call i64 @gtk_tree_model_get_type() #12
  %18 = tail call ptr @g_type_check_instance_cast(ptr noundef %15, i64 noundef %17) #11
  %19 = call i32 @gtk_tree_model_get_iter(ptr noundef %18, ptr noundef nonnull %5, ptr noundef %16) #11
  %20 = call ptr @g_type_check_instance_cast(ptr noundef %0, i64 noundef 80) #11
  %21 = call ptr @g_object_get_data(ptr noundef %20, ptr noundef nonnull @.str.30) #11
  %22 = ptrtoint ptr %21 to i64
  %23 = and i64 %22, 4294967295
  %cond = icmp eq i64 %23, 32
  br i1 %cond, label %24, label %29

24:                                               ; preds = %13
  %25 = call ptr @g_type_check_instance_cast(ptr noundef %15, i64 noundef %17) #11
  call void (ptr, ptr, ...) @gtk_tree_model_get(ptr noundef %25, ptr noundef nonnull %5, i32 noundef 21, ptr noundef nonnull %6, i32 noundef -1) #11
  %26 = load ptr, ptr %6, align 8
  %27 = call i32 @update_state_node(ptr noundef null, ptr noundef %26, ptr noundef nonnull %2)
  %28 = load ptr, ptr %6, align 8
  call void @g_free(ptr noundef %28) #11
  br label %29

29:                                               ; preds = %24, %13
  call void @gtk_tree_path_free(ptr noundef %16) #11
  br label %30

30:                                               ; preds = %4, %7, %29, %12
  %31 = load ptr, ptr @sview_mutex, align 8
  call void @g_mutex_unlock(ptr noundef %31) #11
  call void @llvm.lifetime.end.p0(i64 8, ptr nonnull %6) #11
  call void @llvm.lifetime.end.p0(i64 32, ptr nonnull %5) #11
  ret void
}